---
triple:          'arm64-apple-darwin'
binary-path:     dineseating.o
relocations:
  - { offsetInCU: 0x46CD, offset: 0x46CD, size: 0x8, addend: 0x0, symName: __ZNSt3__124__put_character_sequenceB8ue170006IcNS_11char_traitsIcEEEERNS_13basic_ostreamIT_T0_EES7_PKS4_m, symObjAddr: 0x504, symBinAddr: 0x100000D6C, symSize: 0x1EC }
  - { offsetInCU: 0x6021, offset: 0x6021, size: 0x8, addend: 0x0, symName: __ZNSt3__1lsB8ue170006INS_11char_traitsIcEEEERNS_13basic_ostreamIcT_EES6_PKc, symObjAddr: 0x1AC, symBinAddr: 0x100000A14, symSize: 0x48 }
  - { offsetInCU: 0x6067, offset: 0x6067, size: 0x8, addend: 0x0, symName: __ZNSt3__14endlB8ue170006IcNS_11char_traitsIcEEEERNS_13basic_ostreamIT_T0_EES7_, symObjAddr: 0x220, symBinAddr: 0x100000A88, symSize: 0x58 }
  - { offsetInCU: 0x62A6, offset: 0x62A6, size: 0x8, addend: 0x0, symName: __ZNSt3__116__pad_and_outputB8ue170006IcNS_11char_traitsIcEEEENS_19ostreambuf_iteratorIT_T0_EES6_PKS4_S8_S8_RNS_8ios_baseES4_, symObjAddr: 0x740, symBinAddr: 0x100000FA8, symSize: 0x240 }
  - { offsetInCU: 0x6375, offset: 0x6375, size: 0x8, addend: 0x0, symName: __ZNSt3__112__to_addressB8ue170006IKcEEPT_S3_, symObjAddr: 0xCB4, symBinAddr: 0x10000151C, symSize: 0x14 }
  - { offsetInCU: 0x63DD, offset: 0x63DD, size: 0x8, addend: 0x0, symName: __ZNSt3__19use_facetB8ue170006INS_5ctypeIcEEEERKT_RKNS_6localeE, symObjAddr: 0xF34, symBinAddr: 0x10000179C, symSize: 0x2C }
  - { offsetInCU: 0x68AA, offset: 0x68AA, size: 0x8, addend: 0x0, symName: __ZNSt3__118__constexpr_strlenB8ue170006EPKc, symObjAddr: 0xFCC, symBinAddr: 0x100001834, symSize: 0x24 }
  - { offsetInCU: 0x910F, offset: 0x910F, size: 0x8, addend: 0x0, symName: __Z10parse_argsiPPc, symObjAddr: 0x0, symBinAddr: 0x100000868, symSize: 0x164 }
  - { offsetInCU: 0x9166, offset: 0x9166, size: 0x8, addend: 0x0, symName: __ZNSt3__113basic_ostreamIcNS_11char_traitsIcEEElsB8ue170006EPFRS3_S4_E, symObjAddr: 0x1F4, symBinAddr: 0x100000A5C, symSize: 0x2C }
  - { offsetInCU: 0x9198, offset: 0x9198, size: 0x8, addend: 0x0, symName: _main, symObjAddr: 0x278, symBinAddr: 0x100000AE0, symSize: 0x1FC }
  - { offsetInCU: 0x924C, offset: 0x924C, size: 0x8, addend: 0x0, symName: __ZNSt3__112basic_stringIcNS_11char_traitsIcEENS_9allocatorIcEEEC1B8ue170006ILi0EEEPKc, symObjAddr: 0x474, symBinAddr: 0x100000CDC, symSize: 0x34 }
  - { offsetInCU: 0x94DD, offset: 0x94DD, size: 0x8, addend: 0x0, symName: __ZN8ProducerD1Ev, symObjAddr: 0x4A8, symBinAddr: 0x100000D10, symSize: 0x2C }
  - { offsetInCU: 0x9507, offset: 0x9507, size: 0x8, addend: 0x0, symName: __ZN8ProducerD2Ev, symObjAddr: 0x4D4, symBinAddr: 0x100000D3C, symSize: 0x30 }
  - { offsetInCU: 0x9531, offset: 0x9531, size: 0x8, addend: 0x0, symName: __ZNSt3__111char_traitsIcE6lengthB8ue170006EPKc, symObjAddr: 0x6F0, symBinAddr: 0x100000F58, symSize: 0x34 }
  - { offsetInCU: 0x9571, offset: 0x9571, size: 0x8, addend: 0x0, symName: __ZNKSt3__113basic_ostreamIcNS_11char_traitsIcEEE6sentrycvbB8ue170006Ev, symObjAddr: 0x724, symBinAddr: 0x100000F8C, symSize: 0x1C }
  - { offsetInCU: 0x9595, offset: 0x9595, size: 0x8, addend: 0x0, symName: __ZNSt3__119ostreambuf_iteratorIcNS_11char_traitsIcEEEC1B8ue170006ERNS_13basic_ostreamIcS2_EE, symObjAddr: 0x980, symBinAddr: 0x1000011E8, symSize: 0x34 }
  - { offsetInCU: 0x95CB, offset: 0x95CB, size: 0x8, addend: 0x0, symName: __ZNKSt3__18ios_base5flagsB8ue170006Ev, symObjAddr: 0x9B4, symBinAddr: 0x10000121C, symSize: 0x18 }
  - { offsetInCU: 0x95F1, offset: 0x95F1, size: 0x8, addend: 0x0, symName: __ZNKSt3__19basic_iosIcNS_11char_traitsIcEEE4fillB8ue170006Ev, symObjAddr: 0x9CC, symBinAddr: 0x100001234, symSize: 0x64 }
  - { offsetInCU: 0x9617, offset: 0x9617, size: 0x8, addend: 0x0, symName: __ZNKSt3__119ostreambuf_iteratorIcNS_11char_traitsIcEEE6failedB8ue170006Ev, symObjAddr: 0xA30, symBinAddr: 0x100001298, symSize: 0x24 }
  - { offsetInCU: 0x963B, offset: 0x963B, size: 0x8, addend: 0x0, symName: __ZNSt3__19basic_iosIcNS_11char_traitsIcEEE8setstateB8ue170006Ej, symObjAddr: 0xA54, symBinAddr: 0x1000012BC, symSize: 0x2C }
  - { offsetInCU: 0x966E, offset: 0x966E, size: 0x8, addend: 0x0, symName: __ZNKSt3__18ios_base5widthB8ue170006Ev, symObjAddr: 0xA8C, symBinAddr: 0x1000012F4, symSize: 0x18 }
  - { offsetInCU: 0x9694, offset: 0x9694, size: 0x8, addend: 0x0, symName: __ZNSt3__115basic_streambufIcNS_11char_traitsIcEEE5sputnB8ue170006EPKcl, symObjAddr: 0xAA4, symBinAddr: 0x10000130C, symSize: 0x3C }
  - { offsetInCU: 0x96D4, offset: 0x96D4, size: 0x8, addend: 0x0, symName: __ZNSt3__112basic_stringIcNS_11char_traitsIcEENS_9allocatorIcEEEC1B8ue170006Emc, symObjAddr: 0xAE0, symBinAddr: 0x100001348, symSize: 0x3C }
  - { offsetInCU: 0x971A, offset: 0x971A, size: 0x8, addend: 0x0, symName: __ZNKSt3__112basic_stringIcNS_11char_traitsIcEENS_9allocatorIcEEE4dataB8ue170006Ev, symObjAddr: 0xB1C, symBinAddr: 0x100001384, symSize: 0x28 }
  - { offsetInCU: 0x973E, offset: 0x973E, size: 0x8, addend: 0x0, symName: __ZNSt3__18ios_base5widthB8ue170006El, symObjAddr: 0xB44, symBinAddr: 0x1000013AC, symSize: 0x2C }
  - { offsetInCU: 0x9782, offset: 0x9782, size: 0x8, addend: 0x0, symName: __ZNSt3__112basic_stringIcNS_11char_traitsIcEENS_9allocatorIcEEEC2B8ue170006Emc, symObjAddr: 0xB70, symBinAddr: 0x1000013D8, symSize: 0x4C }
  - { offsetInCU: 0x97CD, offset: 0x97CD, size: 0x8, addend: 0x0, symName: __ZNSt3__117__compressed_pairINS_12basic_stringIcNS_11char_traitsIcEENS_9allocatorIcEEE5__repES5_EC1B8ue170006INS_18__default_init_tagESA_EEOT_OT0_, symObjAddr: 0xBBC, symBinAddr: 0x100001424, symSize: 0x3C }
  - { offsetInCU: 0x9823, offset: 0x9823, size: 0x8, addend: 0x0, symName: __ZNSt3__117__compressed_pairINS_12basic_stringIcNS_11char_traitsIcEENS_9allocatorIcEEE5__repES5_EC2B8ue170006INS_18__default_init_tagESA_EEOT_OT0_, symObjAddr: 0xBF8, symBinAddr: 0x100001460, symSize: 0x3C }
  - { offsetInCU: 0x9879, offset: 0x9879, size: 0x8, addend: 0x0, symName: __ZNSt3__122__compressed_pair_elemINS_12basic_stringIcNS_11char_traitsIcEENS_9allocatorIcEEE5__repELi0ELb0EEC2B8ue170006ENS_18__default_init_tagE, symObjAddr: 0xC34, symBinAddr: 0x10000149C, symSize: 0x14 }
  - { offsetInCU: 0x98AB, offset: 0x98AB, size: 0x8, addend: 0x0, symName: __ZNSt3__122__compressed_pair_elemINS_9allocatorIcEELi1ELb1EEC2B8ue170006ENS_18__default_init_tagE, symObjAddr: 0xC48, symBinAddr: 0x1000014B0, symSize: 0x2C }
  - { offsetInCU: 0x98DD, offset: 0x98DD, size: 0x8, addend: 0x0, symName: __ZNSt3__19allocatorIcEC2B8ue170006Ev, symObjAddr: 0xC74, symBinAddr: 0x1000014DC, symSize: 0x2C }
  - { offsetInCU: 0x9905, offset: 0x9905, size: 0x8, addend: 0x0, symName: __ZNSt3__116__non_trivial_ifILb1ENS_9allocatorIcEEEC2B8ue170006Ev, symObjAddr: 0xCA0, symBinAddr: 0x100001508, symSize: 0x14 }
  - { offsetInCU: 0x992D, offset: 0x992D, size: 0x8, addend: 0x0, symName: __ZNKSt3__112basic_stringIcNS_11char_traitsIcEENS_9allocatorIcEEE13__get_pointerB8ue170006Ev, symObjAddr: 0xCC8, symBinAddr: 0x100001530, symSize: 0x54 }
  - { offsetInCU: 0x9951, offset: 0x9951, size: 0x8, addend: 0x0, symName: __ZNKSt3__112basic_stringIcNS_11char_traitsIcEENS_9allocatorIcEEE9__is_longB8ue170006Ev, symObjAddr: 0xD1C, symBinAddr: 0x100001584, symSize: 0x38 }
  - { offsetInCU: 0x9975, offset: 0x9975, size: 0x8, addend: 0x0, symName: __ZNKSt3__112basic_stringIcNS_11char_traitsIcEENS_9allocatorIcEEE18__get_long_pointerB8ue170006Ev, symObjAddr: 0xD54, symBinAddr: 0x1000015BC, symSize: 0x28 }
  - { offsetInCU: 0x9999, offset: 0x9999, size: 0x8, addend: 0x0, symName: __ZNKSt3__112basic_stringIcNS_11char_traitsIcEENS_9allocatorIcEEE19__get_short_pointerB8ue170006Ev, symObjAddr: 0xD7C, symBinAddr: 0x1000015E4, symSize: 0x28 }
  - { offsetInCU: 0x99BD, offset: 0x99BD, size: 0x8, addend: 0x0, symName: __ZNKSt3__117__compressed_pairINS_12basic_stringIcNS_11char_traitsIcEENS_9allocatorIcEEE5__repES5_E5firstB8ue170006Ev, symObjAddr: 0xDA4, symBinAddr: 0x10000160C, symSize: 0x24 }
  - { offsetInCU: 0x99E1, offset: 0x99E1, size: 0x8, addend: 0x0, symName: __ZNKSt3__122__compressed_pair_elemINS_12basic_stringIcNS_11char_traitsIcEENS_9allocatorIcEEE5__repELi0ELb0EE5__getB8ue170006Ev, symObjAddr: 0xDC8, symBinAddr: 0x100001630, symSize: 0x14 }
  - { offsetInCU: 0x9A05, offset: 0x9A05, size: 0x8, addend: 0x0, symName: __ZNSt3__114pointer_traitsIPKcE10pointer_toB8ue170006ERS1_, symObjAddr: 0xDDC, symBinAddr: 0x100001644, symSize: 0x14 }
  - { offsetInCU: 0x9A27, offset: 0x9A27, size: 0x8, addend: 0x0, symName: __ZNSt3__119ostreambuf_iteratorIcNS_11char_traitsIcEEEC2B8ue170006ERNS_13basic_ostreamIcS2_EE, symObjAddr: 0xDF0, symBinAddr: 0x100001658, symSize: 0x54 }
  - { offsetInCU: 0x9A5D, offset: 0x9A5D, size: 0x8, addend: 0x0, symName: __ZNKSt3__19basic_iosIcNS_11char_traitsIcEEE5rdbufB8ue170006Ev, symObjAddr: 0xE44, symBinAddr: 0x1000016AC, symSize: 0x24 }
  - { offsetInCU: 0x9A83, offset: 0x9A83, size: 0x8, addend: 0x0, symName: __ZNKSt3__18ios_base5rdbufB8ue170006Ev, symObjAddr: 0xE68, symBinAddr: 0x1000016D0, symSize: 0x18 }
  - { offsetInCU: 0x9AA7, offset: 0x9AA7, size: 0x8, addend: 0x0, symName: __ZNSt3__111char_traitsIcE11eq_int_typeB8ue170006Eii, symObjAddr: 0xE80, symBinAddr: 0x1000016E8, symSize: 0x28 }
  - { offsetInCU: 0x9AD9, offset: 0x9AD9, size: 0x8, addend: 0x0, symName: __ZNSt3__111char_traitsIcE3eofB8ue170006Ev, symObjAddr: 0xEA8, symBinAddr: 0x100001710, symSize: 0x8 }
  - { offsetInCU: 0x9AEC, offset: 0x9AEC, size: 0x8, addend: 0x0, symName: __ZNKSt3__19basic_iosIcNS_11char_traitsIcEEE5widenB8ue170006Ec, symObjAddr: 0xEB0, symBinAddr: 0x100001718, symSize: 0x84 }
  - { offsetInCU: 0x9B58, offset: 0x9B58, size: 0x8, addend: 0x0, symName: __ZNKSt3__15ctypeIcE5widenB8ue170006Ec, symObjAddr: 0xF60, symBinAddr: 0x1000017C8, symSize: 0x38 }
  - { offsetInCU: 0x9B8B, offset: 0x9B8B, size: 0x8, addend: 0x0, symName: __ZNSt3__18ios_base8setstateB8ue170006Ej, symObjAddr: 0xF98, symBinAddr: 0x100001800, symSize: 0x34 }
  - { offsetInCU: 0x9BC0, offset: 0x9BC0, size: 0x8, addend: 0x0, symName: __ZNSt3__112basic_stringIcNS_11char_traitsIcEENS_9allocatorIcEEEC2B8ue170006ILi0EEEPKc, symObjAddr: 0xFF0, symBinAddr: 0x100001858, symSize: 0x58 }
  - { offsetInCU: 0x606D, offset: 0xFDB3, size: 0x8, addend: 0x0, symName: __ZN8ProducerC2EP7MonitoriNSt3__112basic_stringIcNS2_11char_traitsIcEENS2_9allocatorIcEEEE, symObjAddr: 0x0, symBinAddr: 0x1000018B0, symSize: 0x8C }
  - { offsetInCU: 0x60C2, offset: 0xFE08, size: 0x8, addend: 0x0, symName: __ZNSt3__112basic_stringIcNS_11char_traitsIcEENS_9allocatorIcEEEC1B8ue170006Ev, symObjAddr: 0x8C, symBinAddr: 0x10000193C, symSize: 0x2C }
  - { offsetInCU: 0x60EA, offset: 0xFE30, size: 0x8, addend: 0x0, symName: __ZN8ProducerC1EP7MonitoriNSt3__112basic_stringIcNS2_11char_traitsIcEENS2_9allocatorIcEEEE, symObjAddr: 0xB8, symBinAddr: 0x100001968, symSize: 0x44 }
  - { offsetInCU: 0x613F, offset: 0xFE85, size: 0x8, addend: 0x0, symName: __ZN8Producer7produceEv, symObjAddr: 0xFC, symBinAddr: 0x1000019AC, symSize: 0xA0 }
  - { offsetInCU: 0x6166, offset: 0xFEAC, size: 0x8, addend: 0x0, symName: __ZN8Producer13start_produceEPv, symObjAddr: 0x19C, symBinAddr: 0x100001A4C, symSize: 0x30 }
  - { offsetInCU: 0x6199, offset: 0xFEDF, size: 0x8, addend: 0x0, symName: __ZNSt3__112basic_stringIcNS_11char_traitsIcEENS_9allocatorIcEEEC2B8ue170006Ev, symObjAddr: 0x1CC, symBinAddr: 0x100001A7C, symSize: 0x48 }
  - { offsetInCU: 0x61C1, offset: 0xFF07, size: 0x8, addend: 0x0, symName: __ZNSt3__112basic_stringIcNS_11char_traitsIcEENS_9allocatorIcEEE14__default_initB8ue170006Ev, symObjAddr: 0x25C, symBinAddr: 0x100001AC4, symSize: 0x40 }
  - { offsetInCU: 0x61E5, offset: 0xFF2B, size: 0x8, addend: 0x0, symName: __ZNSt3__117__compressed_pairINS_12basic_stringIcNS_11char_traitsIcEENS_9allocatorIcEEE5__repES5_E5firstB8ue170006Ev, symObjAddr: 0x358, symBinAddr: 0x100001B04, symSize: 0x24 }
  - { offsetInCU: 0x6209, offset: 0xFF4F, size: 0x8, addend: 0x0, symName: __ZNSt3__122__compressed_pair_elemINS_12basic_stringIcNS_11char_traitsIcEENS_9allocatorIcEEE5__repELi0ELb0EE5__getB8ue170006Ev, symObjAddr: 0x37C, symBinAddr: 0x100001B28, symSize: 0x14 }
  - { offsetInCU: 0x26, offset: 0xFF9E, size: 0x8, addend: 0x0, symName: __ZN16General_ProducerC2EP7Monitori, symObjAddr: 0x0, symBinAddr: 0x100001B3C, symSize: 0xC8 }
  - { offsetInCU: 0x5F1E, offset: 0x15E96, size: 0x8, addend: 0x0, symName: __ZN16General_ProducerC2EP7Monitori, symObjAddr: 0x0, symBinAddr: 0x100001B3C, symSize: 0xC8 }
  - { offsetInCU: 0x5F69, offset: 0x15EE1, size: 0x8, addend: 0x0, symName: __ZNSt3__112basic_stringIcNS_11char_traitsIcEENS_9allocatorIcEEEaSB8ue170006EPKc, symObjAddr: 0xFC, symBinAddr: 0x100001C04, symSize: 0x2C }
  - { offsetInCU: 0x5F9C, offset: 0x15F14, size: 0x8, addend: 0x0, symName: __ZN16General_ProducerC1EP7Monitori, symObjAddr: 0x158, symBinAddr: 0x100001C30, symSize: 0x3C }
  - { offsetInCU: 0x5FE2, offset: 0x15F5A, size: 0x8, addend: 0x0, symName: __ZN16General_Producer7produceEv, symObjAddr: 0x194, symBinAddr: 0x100001C6C, symSize: 0xA0 }
  - { offsetInCU: 0x26, offset: 0x15FB1, size: 0x8, addend: 0x0, symName: __ZN12VIP_ProducerC2EP7Monitori, symObjAddr: 0x0, symBinAddr: 0x100001D0C, symSize: 0xC8 }
  - { offsetInCU: 0x5F1E, offset: 0x1BEA9, size: 0x8, addend: 0x0, symName: __ZN12VIP_ProducerC2EP7Monitori, symObjAddr: 0x0, symBinAddr: 0x100001D0C, symSize: 0xC8 }
  - { offsetInCU: 0x5F69, offset: 0x1BEF4, size: 0x8, addend: 0x0, symName: __ZN12VIP_ProducerC1EP7Monitori, symObjAddr: 0x158, symBinAddr: 0x100001DD4, symSize: 0x3C }
  - { offsetInCU: 0x5FAF, offset: 0x1BF3A, size: 0x8, addend: 0x0, symName: __ZN12VIP_Producer7produceEv, symObjAddr: 0x194, symBinAddr: 0x100001E10, symSize: 0xA0 }
  - { offsetInCU: 0x4F31, offset: 0x20E97, size: 0x8, addend: 0x0, symName: __ZNSt3__1eqB8ue170006IcNS_11char_traitsIcEENS_9allocatorIcEEEEbRKNS_12basic_stringIT_T0_T1_EEPKS6_, symObjAddr: 0x3BC, symBinAddr: 0x100002260, symSize: 0xAC }
  - { offsetInCU: 0x4F98, offset: 0x20EFE, size: 0x8, addend: 0x0, symName: __ZNSt3__1neB8ue170006ERKNS_16__deque_iteratorI15Seating_RequestPS1_RS1_PS2_lLl170EEES7_, symObjAddr: 0xD94, symBinAddr: 0x100002C38, symSize: 0x34 }
  - { offsetInCU: 0x4FD5, offset: 0x20F3B, size: 0x8, addend: 0x0, symName: __ZNSt3__1eqB8ue170006ERKNS_16__deque_iteratorI15Seating_RequestPS1_RS1_PS2_lLl170EEES7_, symObjAddr: 0x10E8, symBinAddr: 0x100002F8C, symSize: 0x30 }
  - { offsetInCU: 0x5013, offset: 0x20F79, size: 0x8, addend: 0x0, symName: __ZNSt3__112__to_addressB8ue170006I15Seating_RequestEEPT_S3_, symObjAddr: 0x17A4, symBinAddr: 0x100003648, symSize: 0x14 }
  - { offsetInCU: 0x5048, offset: 0x20FAE, size: 0x8, addend: 0x0, symName: __ZNSt3__119__libcpp_deallocateB8ue170006EPvmm, symObjAddr: 0x1914, symBinAddr: 0x1000037B8, symSize: 0x30 }
  - { offsetInCU: 0x5091, offset: 0x20FF7, size: 0x8, addend: 0x0, symName: __ZNSt3__127__do_deallocate_handle_sizeB8ue170006IJEEEvPvmDpT_, symObjAddr: 0x1944, symBinAddr: 0x1000037E8, symSize: 0x28 }
  - { offsetInCU: 0x50D1, offset: 0x21037, size: 0x8, addend: 0x0, symName: __ZNSt3__124__libcpp_operator_deleteB8ue170006IJPvEEEvDpT_, symObjAddr: 0x196C, symBinAddr: 0x100003810, symSize: 0x24 }
  - { offsetInCU: 0x5109, offset: 0x2106F, size: 0x8, addend: 0x0, symName: __ZNSt3__112__to_addressB8ue170006IP15Seating_RequestEEPT_S4_, symObjAddr: 0x1BF0, symBinAddr: 0x100003A94, symSize: 0x14 }
  - { offsetInCU: 0x513E, offset: 0x210A4, size: 0x8, addend: 0x0, symName: __ZNSt3__13maxB8ue170006ImEERKT_S3_S3_, symObjAddr: 0x3118, symBinAddr: 0x100004D10, symSize: 0x2C }
  - { offsetInCU: 0x55DD, offset: 0x21543, size: 0x8, addend: 0x0, symName: __ZNSt3__14swapB8ue170006IPP15Seating_RequestEENS_9enable_ifIXaasr21is_move_constructibleIT_EE5valuesr18is_move_assignableIS5_EE5valueEvE4typeERS5_S8_, symObjAddr: 0x3728, symBinAddr: 0x100005320, symSize: 0x3C }
  - { offsetInCU: 0x562E, offset: 0x21594, size: 0x8, addend: 0x0, symName: __ZNSt3__14moveB8ue170006IPP15Seating_RequestS3_EET0_T_S5_S4_, symObjAddr: 0x380C, symBinAddr: 0x100005404, symSize: 0x40 }
  - { offsetInCU: 0x56A7, offset: 0x2160D, size: 0x8, addend: 0x0, symName: __ZNSt3__16__moveB8ue170006INS_17_ClassicAlgPolicyEPP15Seating_RequestS4_S4_EENS_4pairIT0_T2_EES6_T1_S7_, symObjAddr: 0x3914, symBinAddr: 0x10000550C, symSize: 0x44 }
  - { offsetInCU: 0x5713, offset: 0x21679, size: 0x8, addend: 0x0, symName: __ZNSt3__123__dispatch_copy_or_moveB8ue170006INS_17_ClassicAlgPolicyENS_11__move_loopIS1_EENS_14__move_trivialEPP15Seating_RequestS7_S7_EENS_4pairIT2_T4_EES9_T3_SA_, symObjAddr: 0x3958, symBinAddr: 0x100005550, symSize: 0x44 }
  - { offsetInCU: 0x5791, offset: 0x216F7, size: 0x8, addend: 0x0, symName: __ZNSt3__121__unwrap_and_dispatchB8ue170006INS_10__overloadINS_11__move_loopINS_17_ClassicAlgPolicyEEENS_14__move_trivialEEEPP15Seating_RequestS9_S9_Li0EEENS_4pairIT0_T2_EESB_T1_SC_, symObjAddr: 0x399C, symBinAddr: 0x100005594, symSize: 0xB4 }
  - { offsetInCU: 0x581F, offset: 0x21785, size: 0x8, addend: 0x0, symName: __ZNSt3__114__unwrap_rangeB8ue170006IPP15Seating_RequestS3_EENS_4pairIT0_S5_EET_S7_, symObjAddr: 0x3A50, symBinAddr: 0x100005648, symSize: 0x60 }
  - { offsetInCU: 0x59E6, offset: 0x2194C, size: 0x8, addend: 0x0, symName: __ZNSt3__113__unwrap_iterB8ue170006IPP15Seating_RequestNS_18__unwrap_iter_implIS3_Lb1EEELi0EEEDTclsrT0_8__unwrapclsr3stdE7declvalIT_EEEES7_, symObjAddr: 0x3AF8, symBinAddr: 0x1000056F0, symSize: 0x24 }
  - { offsetInCU: 0x5A2A, offset: 0x21990, size: 0x8, addend: 0x0, symName: __ZNSt3__19make_pairB8ue170006IPP15Seating_RequestS3_EENS_4pairINS_18__unwrap_ref_decayIT_E4typeENS5_IT0_E4typeEEEOS6_OS9_, symObjAddr: 0x3B1C, symBinAddr: 0x100005714, symSize: 0x38 }
  - { offsetInCU: 0x5A79, offset: 0x219DF, size: 0x8, addend: 0x0, symName: __ZNSt3__114__rewrap_rangeB8ue170006IPP15Seating_RequestS3_EET_S4_T0_, symObjAddr: 0x3B54, symBinAddr: 0x10000574C, symSize: 0x2C }
  - { offsetInCU: 0x5AC5, offset: 0x21A2B, size: 0x8, addend: 0x0, symName: __ZNSt3__113__rewrap_iterB8ue170006IPP15Seating_RequestS3_NS_18__unwrap_iter_implIS3_Lb1EEEEET_S6_T0_, symObjAddr: 0x3B80, symBinAddr: 0x100005778, symSize: 0x3C }
  - { offsetInCU: 0x5B1A, offset: 0x21A80, size: 0x8, addend: 0x0, symName: __ZNSt3__119__copy_trivial_implB8ue170006IP15Seating_RequestS2_EENS_4pairIPT_PT0_EES5_S5_S7_, symObjAddr: 0x3BBC, symBinAddr: 0x1000057B4, symSize: 0x80 }
  - { offsetInCU: 0x5B82, offset: 0x21AE8, size: 0x8, addend: 0x0, symName: __ZNSt3__119__constexpr_memmoveB8ue170006IP15Seating_RequestS2_Li0EEEPT_S4_PT0_NS_15__element_countE, symObjAddr: 0x3C3C, symBinAddr: 0x100005834, symSize: 0x64 }
  - { offsetInCU: 0x5BF0, offset: 0x21B56, size: 0x8, addend: 0x0, symName: __ZNSt3__19make_pairB8ue170006IRPP15Seating_RequestS3_EENS_4pairINS_18__unwrap_ref_decayIT_E4typeENS6_IT0_E4typeEEEOS7_OSA_, symObjAddr: 0x3CA0, symBinAddr: 0x100005898, symSize: 0x38 }
  - { offsetInCU: 0x5C93, offset: 0x21BF9, size: 0x8, addend: 0x0, symName: __ZNSt3__18distanceB8ue170006INS_13move_iteratorIPP15Seating_RequestEEEENS_15iterator_traitsIT_E15difference_typeES7_S7_, symObjAddr: 0x3F08, symBinAddr: 0x100005B00, symSize: 0x3C }
  - { offsetInCU: 0x5CD6, offset: 0x21C3C, size: 0x8, addend: 0x0, symName: __ZNSt3__110__distanceB8ue170006INS_13move_iteratorIPP15Seating_RequestEEEENS_15iterator_traitsIT_E15difference_typeES7_S7_NS_26random_access_iterator_tagE, symObjAddr: 0x410C, symBinAddr: 0x100005D04, symSize: 0x30 }
  - { offsetInCU: 0x5D23, offset: 0x21C89, size: 0x8, addend: 0x0, symName: __ZNSt3__1miB8ue170006IPP15Seating_RequestS3_EEDTmicldtfp_4baseEcldtfp0_4baseEERKNS_13move_iteratorIT_EERKNS5_IT0_EE, symObjAddr: 0x413C, symBinAddr: 0x100005D34, symSize: 0x48 }
  - { offsetInCU: 0x5D72, offset: 0x21CD8, size: 0x8, addend: 0x0, symName: __ZNSt3__117__libcpp_allocateB8ue170006Emm, symObjAddr: 0x4298, symBinAddr: 0x100005E90, symSize: 0x28 }
  - { offsetInCU: 0x5DAF, offset: 0x21D15, size: 0x8, addend: 0x0, symName: __ZNSt3__121__libcpp_operator_newB8ue170006IJmEEEPvDpT_, symObjAddr: 0x42D8, symBinAddr: 0x100005ED0, symSize: 0x24 }
  - { offsetInCU: 0x5DEA, offset: 0x21D50, size: 0x8, addend: 0x0, symName: __ZNSt3__113move_backwardB8ue170006IPP15Seating_RequestS3_EET0_T_S5_S4_, symObjAddr: 0x42FC, symBinAddr: 0x100005EF4, symSize: 0x40 }
  - { offsetInCU: 0x5E44, offset: 0x21DAA, size: 0x8, addend: 0x0, symName: __ZNSt3__115__move_backwardB8ue170006INS_17_ClassicAlgPolicyEPP15Seating_RequestS4_S4_EENS_4pairIT0_T2_EES6_T1_S7_, symObjAddr: 0x433C, symBinAddr: 0x100005F34, symSize: 0x44 }
  - { offsetInCU: 0x5EB0, offset: 0x21E16, size: 0x8, addend: 0x0, symName: __ZNSt3__123__dispatch_copy_or_moveB8ue170006INS_17_ClassicAlgPolicyENS_20__move_backward_loopIS1_EENS_23__move_backward_trivialEPP15Seating_RequestS7_S7_EENS_4pairIT2_T4_EES9_T3_SA_, symObjAddr: 0x4380, symBinAddr: 0x100005F78, symSize: 0x44 }
  - { offsetInCU: 0x5F2E, offset: 0x21E94, size: 0x8, addend: 0x0, symName: __ZNSt3__121__unwrap_and_dispatchB8ue170006INS_10__overloadINS_20__move_backward_loopINS_17_ClassicAlgPolicyEEENS_23__move_backward_trivialEEEPP15Seating_RequestS9_S9_Li0EEENS_4pairIT0_T2_EESB_T1_SC_, symObjAddr: 0x43C4, symBinAddr: 0x100005FBC, symSize: 0xB4 }
  - { offsetInCU: 0x6002, offset: 0x21F68, size: 0x8, addend: 0x0, symName: __ZNSt3__128__copy_backward_trivial_implB8ue170006IP15Seating_RequestS2_EENS_4pairIPT_PT0_EES5_S5_S7_, symObjAddr: 0x44C0, symBinAddr: 0x1000060B8, symSize: 0x90 }
  - { offsetInCU: 0x606A, offset: 0x21FD0, size: 0x8, addend: 0x0, symName: __ZNSt3__19make_pairB8ue170006IRPP15Seating_RequestS4_EENS_4pairINS_18__unwrap_ref_decayIT_E4typeENS6_IT0_E4typeEEEOS7_OSA_, symObjAddr: 0x4550, symBinAddr: 0x100006148, symSize: 0x38 }
  - { offsetInCU: 0x60B9, offset: 0x2201F, size: 0x8, addend: 0x0, symName: __ZNSt3__13maxB8ue170006ImNS_6__lessIvvEEEERKT_S5_S5_T0_, symObjAddr: 0x45F8, symBinAddr: 0x1000061F0, symSize: 0x54 }
  - { offsetInCU: 0x615A, offset: 0x220C0, size: 0x8, addend: 0x0, symName: __ZNSt3__119__allocate_at_leastB8ue170006INS_9allocatorIP15Seating_RequestEEEENS_19__allocation_resultINS_16allocator_traitsIT_E7pointerEEERS7_m, symObjAddr: 0x4790, symBinAddr: 0x100006388, symSize: 0x40 }
  - { offsetInCU: 0x62B8, offset: 0x2221E, size: 0x8, addend: 0x0, symName: __ZSt28__throw_bad_array_new_lengthB8ue170006v, symObjAddr: 0x4264, symBinAddr: 0x100005E5C, symSize: 0x34 }
  - { offsetInCU: 0x8532, offset: 0x24498, size: 0x8, addend: 0x0, symName: __ZN7MonitorC2Ev, symObjAddr: 0x0, symBinAddr: 0x100001EB0, symSize: 0x88 }
  - { offsetInCU: 0x855C, offset: 0x244C2, size: 0x8, addend: 0x0, symName: __ZNSt3__15queueI15Seating_RequestNS_5dequeIS1_NS_9allocatorIS1_EEEEEC1B8ue170006Ev, symObjAddr: 0x88, symBinAddr: 0x100001F38, symSize: 0x2C }
  - { offsetInCU: 0x8584, offset: 0x244EA, size: 0x8, addend: 0x0, symName: __ZNSt3__15queueI15Seating_RequestNS_5dequeIS1_NS_9allocatorIS1_EEEEED1Ev, symObjAddr: 0xB4, symBinAddr: 0x100001F64, symSize: 0x2C }
  - { offsetInCU: 0x85B0, offset: 0x24516, size: 0x8, addend: 0x0, symName: __ZN7MonitorC1Ev, symObjAddr: 0xE0, symBinAddr: 0x100001F90, symSize: 0x2C }
  - { offsetInCU: 0x85DA, offset: 0x24540, size: 0x8, addend: 0x0, symName: __ZN7MonitorC2Ei, symObjAddr: 0x10C, symBinAddr: 0x100001FBC, symSize: 0x84 }
  - { offsetInCU: 0x8612, offset: 0x24578, size: 0x8, addend: 0x0, symName: __ZN7MonitorC1Ei, symObjAddr: 0x190, symBinAddr: 0x100002040, symSize: 0x34 }
  - { offsetInCU: 0x864A, offset: 0x245B0, size: 0x8, addend: 0x0, symName: __ZN7MonitorD2Ev, symObjAddr: 0x1C4, symBinAddr: 0x100002074, symSize: 0x50 }
  - { offsetInCU: 0x8674, offset: 0x245DA, size: 0x8, addend: 0x0, symName: __ZN7MonitorD1Ev, symObjAddr: 0x220, symBinAddr: 0x1000020C4, symSize: 0x2C }
  - { offsetInCU: 0x869E, offset: 0x24604, size: 0x8, addend: 0x0, symName: __ZN7Monitor12produce_itemENSt3__112basic_stringIcNS0_11char_traitsIcEENS0_9allocatorIcEEEE, symObjAddr: 0x24C, symBinAddr: 0x1000020F0, symSize: 0x140 }
  - { offsetInCU: 0x86D4, offset: 0x2463A, size: 0x8, addend: 0x0, symName: __ZN7Monitor7is_fullEv, symObjAddr: 0x38C, symBinAddr: 0x100002230, symSize: 0x30 }
  - { offsetInCU: 0x86FB, offset: 0x24661, size: 0x8, addend: 0x0, symName: __ZN7Monitor7produceENSt3__112basic_stringIcNS0_11char_traitsIcEENS0_9allocatorIcEEEE, symObjAddr: 0x468, symBinAddr: 0x10000230C, symSize: 0xB0 }
  - { offsetInCU: 0x873F, offset: 0x246A5, size: 0x8, addend: 0x0, symName: __ZN7Monitor12consume_itemEv, symObjAddr: 0x518, symBinAddr: 0x1000023BC, symSize: 0x78 }
  - { offsetInCU: 0x8766, offset: 0x246CC, size: 0x8, addend: 0x0, symName: __ZNKSt3__15queueI15Seating_RequestNS_5dequeIS1_NS_9allocatorIS1_EEEEE5emptyB8ue170006Ev, symObjAddr: 0x590, symBinAddr: 0x100002434, symSize: 0x28 }
  - { offsetInCU: 0x878A, offset: 0x246F0, size: 0x8, addend: 0x0, symName: __ZN7Monitor7consumeEv, symObjAddr: 0x5B8, symBinAddr: 0x10000245C, symSize: 0xB4 }
  - { offsetInCU: 0x87C4, offset: 0x2472A, size: 0x8, addend: 0x0, symName: __ZN15Seating_RequestC1Ev, symObjAddr: 0x66C, symBinAddr: 0x100002510, symSize: 0x2C }
  - { offsetInCU: 0x87EE, offset: 0x24754, size: 0x8, addend: 0x0, symName: __ZNSt3__15queueI15Seating_RequestNS_5dequeIS1_NS_9allocatorIS1_EEEEE4pushB8ue170006ERKS1_, symObjAddr: 0x698, symBinAddr: 0x10000253C, symSize: 0x2C }
  - { offsetInCU: 0x8821, offset: 0x24787, size: 0x8, addend: 0x0, symName: __ZNKSt3__112basic_stringIcNS_11char_traitsIcEENS_9allocatorIcEEE5c_strB8ue170006Ev, symObjAddr: 0x6C4, symBinAddr: 0x100002568, symSize: 0x24 }
  - { offsetInCU: 0x8845, offset: 0x247AB, size: 0x8, addend: 0x0, symName: __ZN15Seating_RequestD1Ev, symObjAddr: 0x6E8, symBinAddr: 0x10000258C, symSize: 0x2C }
  - { offsetInCU: 0x886F, offset: 0x247D5, size: 0x8, addend: 0x0, symName: __ZNSt3__15queueI15Seating_RequestNS_5dequeIS1_NS_9allocatorIS1_EEEEE5frontB8ue170006Ev, symObjAddr: 0x714, symBinAddr: 0x1000025B8, symSize: 0x24 }
  - { offsetInCU: 0x8893, offset: 0x247F9, size: 0x8, addend: 0x0, symName: __ZN15Seating_RequestC1ERKS_, symObjAddr: 0x738, symBinAddr: 0x1000025DC, symSize: 0x34 }
  - { offsetInCU: 0x88C6, offset: 0x2482C, size: 0x8, addend: 0x0, symName: __ZNSt3__15queueI15Seating_RequestNS_5dequeIS1_NS_9allocatorIS1_EEEEE3popB8ue170006Ev, symObjAddr: 0x76C, symBinAddr: 0x100002610, symSize: 0x24 }
  - { offsetInCU: 0x88EA, offset: 0x24850, size: 0x8, addend: 0x0, symName: __ZN7Monitor11is_finishedEv, symObjAddr: 0x790, symBinAddr: 0x100002634, symSize: 0x28 }
  - { offsetInCU: 0x8911, offset: 0x24877, size: 0x8, addend: 0x0, symName: __ZNKSt3__15queueI15Seating_RequestNS_5dequeIS1_NS_9allocatorIS1_EEEEE4sizeB8ue170006Ev, symObjAddr: 0x7B8, symBinAddr: 0x10000265C, symSize: 0x24 }
  - { offsetInCU: 0x8935, offset: 0x2489B, size: 0x8, addend: 0x0, symName: __ZNSt3__15queueI15Seating_RequestNS_5dequeIS1_NS_9allocatorIS1_EEEEED2Ev, symObjAddr: 0x7DC, symBinAddr: 0x100002680, symSize: 0x2C }
  - { offsetInCU: 0x8961, offset: 0x248C7, size: 0x8, addend: 0x0, symName: __ZNSt3__15dequeI15Seating_RequestNS_9allocatorIS1_EEED1B8ue170006Ev, symObjAddr: 0x808, symBinAddr: 0x1000026AC, symSize: 0x2C }
  - { offsetInCU: 0x8989, offset: 0x248EF, size: 0x8, addend: 0x0, symName: __ZNSt3__15dequeI15Seating_RequestNS_9allocatorIS1_EEED2B8ue170006Ev, symObjAddr: 0x834, symBinAddr: 0x1000026D8, symSize: 0xA4 }
  - { offsetInCU: 0x89DE, offset: 0x24944, size: 0x8, addend: 0x0, symName: __ZNSt3__15dequeI15Seating_RequestNS_9allocatorIS1_EEE5clearEv, symObjAddr: 0x8D8, symBinAddr: 0x10000277C, symSize: 0x194 }
  - { offsetInCU: 0x8A37, offset: 0x2499D, size: 0x8, addend: 0x0, symName: __ZNKSt3__15dequeI15Seating_RequestNS_9allocatorIS1_EEE17__annotate_deleteB8ue170006Ev, symObjAddr: 0xA6C, symBinAddr: 0x100002910, symSize: 0xEC }
  - { offsetInCU: 0x8A79, offset: 0x249DF, size: 0x8, addend: 0x0, symName: __ZNSt3__114__split_bufferIP15Seating_RequestNS_9allocatorIS2_EEE5beginB8ue170006Ev, symObjAddr: 0xB58, symBinAddr: 0x1000029FC, symSize: 0x18 }
  - { offsetInCU: 0x8A9D, offset: 0x24A03, size: 0x8, addend: 0x0, symName: __ZNSt3__114__split_bufferIP15Seating_RequestNS_9allocatorIS2_EEE3endB8ue170006Ev, symObjAddr: 0xB70, symBinAddr: 0x100002A14, symSize: 0x18 }
  - { offsetInCU: 0x8AC1, offset: 0x24A27, size: 0x8, addend: 0x0, symName: __ZNSt3__116allocator_traitsINS_9allocatorI15Seating_RequestEEE10deallocateB8ue170006ERS3_PS2_m, symObjAddr: 0xB88, symBinAddr: 0x100002A2C, symSize: 0x34 }
  - { offsetInCU: 0x8B02, offset: 0x24A68, size: 0x8, addend: 0x0, symName: __ZNSt3__15dequeI15Seating_RequestNS_9allocatorIS1_EEE7__allocB8ue170006Ev, symObjAddr: 0xBBC, symBinAddr: 0x100002A60, symSize: 0x28 }
  - { offsetInCU: 0x8B26, offset: 0x24A8C, size: 0x8, addend: 0x0, symName: __ZNSt3__114__split_bufferIP15Seating_RequestNS_9allocatorIS2_EEED1Ev, symObjAddr: 0xBE4, symBinAddr: 0x100002A88, symSize: 0x2C }
  - { offsetInCU: 0x8B51, offset: 0x24AB7, size: 0x8, addend: 0x0, symName: __ZNSt3__15dequeI15Seating_RequestNS_9allocatorIS1_EEE5beginB8ue170006Ev, symObjAddr: 0xC10, symBinAddr: 0x100002AB4, symSize: 0xC0 }
  - { offsetInCU: 0x8B84, offset: 0x24AEA, size: 0x8, addend: 0x0, symName: __ZNSt3__15dequeI15Seating_RequestNS_9allocatorIS1_EEE3endB8ue170006Ev, symObjAddr: 0xCD0, symBinAddr: 0x100002B74, symSize: 0xC4 }
  - { offsetInCU: 0x8BC6, offset: 0x24B2C, size: 0x8, addend: 0x0, symName: __ZNSt3__116allocator_traitsINS_9allocatorI15Seating_RequestEEE7destroyB8ue170006IS2_vEEvRS3_PT_, symObjAddr: 0xDC8, symBinAddr: 0x100002C6C, symSize: 0x2C }
  - { offsetInCU: 0x8C03, offset: 0x24B69, size: 0x8, addend: 0x0, symName: __ZNKSt3__116__deque_iteratorI15Seating_RequestPS1_RS1_PS2_lLl170EEdeB8ue170006Ev, symObjAddr: 0xDF4, symBinAddr: 0x100002C98, symSize: 0x18 }
  - { offsetInCU: 0x8C27, offset: 0x24B8D, size: 0x8, addend: 0x0, symName: __ZNSt3__116__deque_iteratorI15Seating_RequestPS1_RS1_PS2_lLl170EEppB8ue170006Ev, symObjAddr: 0xE0C, symBinAddr: 0x100002CB0, symSize: 0x70 }
  - { offsetInCU: 0x8C4B, offset: 0x24BB1, size: 0x8, addend: 0x0, symName: __ZNSt3__15dequeI15Seating_RequestNS_9allocatorIS1_EEE6__sizeB8ue170006Ev, symObjAddr: 0xE7C, symBinAddr: 0x100002D20, symSize: 0x28 }
  - { offsetInCU: 0x8C6F, offset: 0x24BD5, size: 0x8, addend: 0x0, symName: __ZNKSt3__114__split_bufferIP15Seating_RequestNS_9allocatorIS2_EEE4sizeB8ue170006Ev, symObjAddr: 0xEA4, symBinAddr: 0x100002D48, symSize: 0x28 }
  - { offsetInCU: 0x8C93, offset: 0x24BF9, size: 0x8, addend: 0x0, symName: __ZNSt3__114__split_bufferIP15Seating_RequestNS_9allocatorIS2_EEE5frontB8ue170006Ev, symObjAddr: 0xECC, symBinAddr: 0x100002D70, symSize: 0x18 }
  - { offsetInCU: 0x8CB7, offset: 0x24C1D, size: 0x8, addend: 0x0, symName: __ZNSt3__114__split_bufferIP15Seating_RequestNS_9allocatorIS2_EEE9pop_frontB8ue170006Ev, symObjAddr: 0xEE4, symBinAddr: 0x100002D88, symSize: 0x2C }
  - { offsetInCU: 0x8CDB, offset: 0x24C41, size: 0x8, addend: 0x0, symName: __ZNKSt3__15dequeI15Seating_RequestNS_9allocatorIS1_EEE14__annotate_newB8ue170006Em, symObjAddr: 0xF10, symBinAddr: 0x100002DB4, symSize: 0xC0 }
  - { offsetInCU: 0x8D0E, offset: 0x24C74, size: 0x8, addend: 0x0, symName: __ZNKSt3__114__split_bufferIP15Seating_RequestNS_9allocatorIS2_EEE5emptyB8ue170006Ev, symObjAddr: 0xFD0, symBinAddr: 0x100002E74, symSize: 0x28 }
  - { offsetInCU: 0x8D32, offset: 0x24C98, size: 0x8, addend: 0x0, symName: __ZNSt3__116__deque_iteratorI15Seating_RequestPS1_RS1_PS2_lLl170EEC1B8ue170006ES4_S2_, symObjAddr: 0xFF8, symBinAddr: 0x100002E9C, symSize: 0x3C }
  - { offsetInCU: 0x8D78, offset: 0x24CDE, size: 0x8, addend: 0x0, symName: __ZNSt3__116__deque_iteratorI15Seating_RequestPS1_RS1_PS2_lLl170EEC2B8ue170006ES4_S2_, symObjAddr: 0x1034, symBinAddr: 0x100002ED8, symSize: 0x2C }
  - { offsetInCU: 0x8DBE, offset: 0x24D24, size: 0x8, addend: 0x0, symName: __ZNKSt3__15dequeI15Seating_RequestNS_9allocatorIS1_EEE4sizeB8ue170006Ev, symObjAddr: 0x1060, symBinAddr: 0x100002F04, symSize: 0x28 }
  - { offsetInCU: 0x8DE2, offset: 0x24D48, size: 0x8, addend: 0x0, symName: __ZNKSt3__15dequeI15Seating_RequestNS_9allocatorIS1_EEE6__sizeB8ue170006Ev, symObjAddr: 0x1088, symBinAddr: 0x100002F2C, symSize: 0x28 }
  - { offsetInCU: 0x8E06, offset: 0x24D6C, size: 0x8, addend: 0x0, symName: __ZNKSt3__117__compressed_pairImNS_9allocatorI15Seating_RequestEEE5firstB8ue170006Ev, symObjAddr: 0x10B0, symBinAddr: 0x100002F54, symSize: 0x24 }
  - { offsetInCU: 0x8E2A, offset: 0x24D90, size: 0x8, addend: 0x0, symName: __ZNKSt3__122__compressed_pair_elemImLi0ELb0EE5__getB8ue170006Ev, symObjAddr: 0x10D4, symBinAddr: 0x100002F78, symSize: 0x14 }
  - { offsetInCU: 0x8E4E, offset: 0x24DB4, size: 0x8, addend: 0x0, symName: __ZNSt3__19allocatorI15Seating_RequestE7destroyB8ue170006EPS1_, symObjAddr: 0x1118, symBinAddr: 0x100002FBC, symSize: 0x28 }
  - { offsetInCU: 0x8E80, offset: 0x24DE6, size: 0x8, addend: 0x0, symName: __ZNSt3__117__compressed_pairImNS_9allocatorI15Seating_RequestEEE5firstB8ue170006Ev, symObjAddr: 0x1140, symBinAddr: 0x100002FE4, symSize: 0x24 }
  - { offsetInCU: 0x8EA4, offset: 0x24E0A, size: 0x8, addend: 0x0, symName: __ZNSt3__122__compressed_pair_elemImLi0ELb0EE5__getB8ue170006Ev, symObjAddr: 0x1164, symBinAddr: 0x100003008, symSize: 0x14 }
  - { offsetInCU: 0x8EC8, offset: 0x24E2E, size: 0x8, addend: 0x0, symName: __ZNSt3__114__split_bufferIP15Seating_RequestNS_9allocatorIS2_EEE19__destruct_at_beginB8ue170006EPS2_, symObjAddr: 0x1178, symBinAddr: 0x10000301C, symSize: 0x2C }
  - { offsetInCU: 0x8EFA, offset: 0x24E60, size: 0x8, addend: 0x0, symName: __ZNSt3__114__split_bufferIP15Seating_RequestNS_9allocatorIS2_EEE19__destruct_at_beginEPS2_NS_17integral_constantIbLb1EEE, symObjAddr: 0x11A4, symBinAddr: 0x100003048, symSize: 0x20 }
  - { offsetInCU: 0x8F38, offset: 0x24E9E, size: 0x8, addend: 0x0, symName: __ZNKSt3__15dequeI15Seating_RequestNS_9allocatorIS1_EEE18__annotate_from_toB8ue170006EmmNS4_22__asan_annotation_typeENS4_23__asan_annotation_placeE, symObjAddr: 0x11C4, symBinAddr: 0x100003068, symSize: 0x598 }
  - { offsetInCU: 0x90F4, offset: 0x2505A, size: 0x8, addend: 0x0, symName: __ZNKSt3__114__split_bufferIP15Seating_RequestNS_9allocatorIS2_EEE5beginB8ue170006Ev, symObjAddr: 0x175C, symBinAddr: 0x100003600, symSize: 0x18 }
  - { offsetInCU: 0x9118, offset: 0x2507E, size: 0x8, addend: 0x0, symName: __ZNKSt3__15dequeI15Seating_RequestNS_9allocatorIS1_EEE5emptyB8ue170006Ev, symObjAddr: 0x1774, symBinAddr: 0x100003618, symSize: 0x30 }
  - { offsetInCU: 0x913C, offset: 0x250A2, size: 0x8, addend: 0x0, symName: __ZNKSt3__15dequeI15Seating_RequestNS_9allocatorIS1_EEE44__annotate_double_ended_contiguous_containerB8ue170006EPKvS6_S6_S6_S6_S6_, symObjAddr: 0x17B8, symBinAddr: 0x10000365C, symSize: 0x28 }
  - { offsetInCU: 0x91A8, offset: 0x2510E, size: 0x8, addend: 0x0, symName: __ZNKSt3__15dequeI15Seating_RequestNS_9allocatorIS1_EEE22__annotate_whole_blockB8ue170006EmNS4_22__asan_annotation_typeE, symObjAddr: 0x17E0, symBinAddr: 0x100003684, symSize: 0xAC }
  - { offsetInCU: 0x9217, offset: 0x2517D, size: 0x8, addend: 0x0, symName: __ZNKSt3__15dequeI15Seating_RequestNS_9allocatorIS1_EEE23__annotate_poison_blockB8ue170006EPKvS6_, symObjAddr: 0x188C, symBinAddr: 0x100003730, symSize: 0x44 }
  - { offsetInCU: 0x9259, offset: 0x251BF, size: 0x8, addend: 0x0, symName: __ZNSt3__19allocatorI15Seating_RequestE10deallocateB8ue170006EPS1_m, symObjAddr: 0x18D0, symBinAddr: 0x100003774, symSize: 0x44 }
  - { offsetInCU: 0x9299, offset: 0x251FF, size: 0x8, addend: 0x0, symName: __ZNSt3__117__compressed_pairImNS_9allocatorI15Seating_RequestEEE6secondB8ue170006Ev, symObjAddr: 0x1990, symBinAddr: 0x100003834, symSize: 0x24 }
  - { offsetInCU: 0x92BD, offset: 0x25223, size: 0x8, addend: 0x0, symName: __ZNSt3__122__compressed_pair_elemINS_9allocatorI15Seating_RequestEELi1ELb1EE5__getB8ue170006Ev, symObjAddr: 0x19B4, symBinAddr: 0x100003858, symSize: 0x14 }
  - { offsetInCU: 0x92E1, offset: 0x25247, size: 0x8, addend: 0x0, symName: __ZNSt3__114__split_bufferIP15Seating_RequestNS_9allocatorIS2_EEED2Ev, symObjAddr: 0x19C8, symBinAddr: 0x10000386C, symSize: 0x8C }
  - { offsetInCU: 0x930C, offset: 0x25272, size: 0x8, addend: 0x0, symName: __ZNSt3__114__split_bufferIP15Seating_RequestNS_9allocatorIS2_EEE5clearB8ue170006Ev, symObjAddr: 0x1A54, symBinAddr: 0x1000038F8, symSize: 0x28 }
  - { offsetInCU: 0x9330, offset: 0x25296, size: 0x8, addend: 0x0, symName: __ZNSt3__116allocator_traitsINS_9allocatorIP15Seating_RequestEEE10deallocateB8ue170006ERS4_PS3_m, symObjAddr: 0x1A7C, symBinAddr: 0x100003920, symSize: 0x34 }
  - { offsetInCU: 0x9371, offset: 0x252D7, size: 0x8, addend: 0x0, symName: __ZNSt3__114__split_bufferIP15Seating_RequestNS_9allocatorIS2_EEE7__allocB8ue170006Ev, symObjAddr: 0x1AB0, symBinAddr: 0x100003954, symSize: 0x28 }
  - { offsetInCU: 0x9395, offset: 0x252FB, size: 0x8, addend: 0x0, symName: __ZNKSt3__114__split_bufferIP15Seating_RequestNS_9allocatorIS2_EEE8capacityB8ue170006Ev, symObjAddr: 0x1AD8, symBinAddr: 0x10000397C, symSize: 0x40 }
  - { offsetInCU: 0x93B9, offset: 0x2531F, size: 0x8, addend: 0x0, symName: __ZNSt3__114__split_bufferIP15Seating_RequestNS_9allocatorIS2_EEE17__destruct_at_endB8ue170006EPS2_, symObjAddr: 0x1B18, symBinAddr: 0x1000039BC, symSize: 0x2C }
  - { offsetInCU: 0x93EB, offset: 0x25351, size: 0x8, addend: 0x0, symName: __ZNSt3__114__split_bufferIP15Seating_RequestNS_9allocatorIS2_EEE17__destruct_at_endB8ue170006EPS2_NS_17integral_constantIbLb0EEE, symObjAddr: 0x1B44, symBinAddr: 0x1000039E8, symSize: 0x80 }
  - { offsetInCU: 0x9429, offset: 0x2538F, size: 0x8, addend: 0x0, symName: __ZNSt3__116allocator_traitsINS_9allocatorIP15Seating_RequestEEE7destroyB8ue170006IS3_vEEvRS4_PT_, symObjAddr: 0x1BC4, symBinAddr: 0x100003A68, symSize: 0x2C }
  - { offsetInCU: 0x9466, offset: 0x253CC, size: 0x8, addend: 0x0, symName: __ZNSt3__19allocatorIP15Seating_RequestE7destroyB8ue170006EPS2_, symObjAddr: 0x1C04, symBinAddr: 0x100003AA8, symSize: 0x14 }
  - { offsetInCU: 0x9498, offset: 0x253FE, size: 0x8, addend: 0x0, symName: __ZNSt3__19allocatorIP15Seating_RequestE10deallocateB8ue170006EPS2_m, symObjAddr: 0x1C18, symBinAddr: 0x100003ABC, symSize: 0x40 }
  - { offsetInCU: 0x94D8, offset: 0x2543E, size: 0x8, addend: 0x0, symName: __ZNSt3__117__compressed_pairIPP15Seating_RequestNS_9allocatorIS2_EEE6secondB8ue170006Ev, symObjAddr: 0x1C58, symBinAddr: 0x100003AFC, symSize: 0x24 }
  - { offsetInCU: 0x94FC, offset: 0x25462, size: 0x8, addend: 0x0, symName: __ZNSt3__122__compressed_pair_elemINS_9allocatorIP15Seating_RequestEELi1ELb1EE5__getB8ue170006Ev, symObjAddr: 0x1C7C, symBinAddr: 0x100003B20, symSize: 0x14 }
  - { offsetInCU: 0x9520, offset: 0x25486, size: 0x8, addend: 0x0, symName: __ZNKSt3__114__split_bufferIP15Seating_RequestNS_9allocatorIS2_EEE9__end_capB8ue170006Ev, symObjAddr: 0x1C90, symBinAddr: 0x100003B34, symSize: 0x28 }
  - { offsetInCU: 0x9544, offset: 0x254AA, size: 0x8, addend: 0x0, symName: __ZNKSt3__117__compressed_pairIPP15Seating_RequestNS_9allocatorIS2_EEE5firstB8ue170006Ev, symObjAddr: 0x1CB8, symBinAddr: 0x100003B5C, symSize: 0x24 }
  - { offsetInCU: 0x9568, offset: 0x254CE, size: 0x8, addend: 0x0, symName: __ZNKSt3__122__compressed_pair_elemIPP15Seating_RequestLi0ELb0EE5__getB8ue170006Ev, symObjAddr: 0x1CDC, symBinAddr: 0x100003B80, symSize: 0x14 }
  - { offsetInCU: 0x958C, offset: 0x254F2, size: 0x8, addend: 0x0, symName: __ZN15Seating_RequestC2Ev, symObjAddr: 0x1CF0, symBinAddr: 0x100003B94, symSize: 0x2C }
  - { offsetInCU: 0x95BB, offset: 0x25521, size: 0x8, addend: 0x0, symName: __ZN15Seating_RequestD2Ev, symObjAddr: 0x1F00, symBinAddr: 0x100003BC0, symSize: 0x2C }
  - { offsetInCU: 0x95E5, offset: 0x2554B, size: 0x8, addend: 0x0, symName: __ZN15Seating_RequestC2ERKS_, symObjAddr: 0x1F2C, symBinAddr: 0x100003BEC, symSize: 0x34 }
  - { offsetInCU: 0x9618, offset: 0x2557E, size: 0x8, addend: 0x0, symName: __ZNSt3__15queueI15Seating_RequestNS_5dequeIS1_NS_9allocatorIS1_EEEEEC2B8ue170006Ev, symObjAddr: 0x1F60, symBinAddr: 0x100003C20, symSize: 0x2C }
  - { offsetInCU: 0x9640, offset: 0x255A6, size: 0x8, addend: 0x0, symName: __ZNSt3__15dequeI15Seating_RequestNS_9allocatorIS1_EEEC1B8ue170006Ev, symObjAddr: 0x1F8C, symBinAddr: 0x100003C4C, symSize: 0x2C }
  - { offsetInCU: 0x9668, offset: 0x255CE, size: 0x8, addend: 0x0, symName: __ZNSt3__15dequeI15Seating_RequestNS_9allocatorIS1_EEEC2B8ue170006Ev, symObjAddr: 0x1FB8, symBinAddr: 0x100003C78, symSize: 0x5C }
  - { offsetInCU: 0x9690, offset: 0x255F6, size: 0x8, addend: 0x0, symName: __ZNSt3__114__split_bufferIP15Seating_RequestNS_9allocatorIS2_EEEC1B8ue170006Ev, symObjAddr: 0x2014, symBinAddr: 0x100003CD4, symSize: 0x2C }
  - { offsetInCU: 0x96BD, offset: 0x25623, size: 0x8, addend: 0x0, symName: __ZNSt3__117__compressed_pairImNS_9allocatorI15Seating_RequestEEEC1B8ue170006IiNS_18__default_init_tagEEEOT_OT0_, symObjAddr: 0x2040, symBinAddr: 0x100003D00, symSize: 0x3C }
  - { offsetInCU: 0x9713, offset: 0x25679, size: 0x8, addend: 0x0, symName: __ZNSt3__114__split_bufferIP15Seating_RequestNS_9allocatorIS2_EEEC2B8ue170006Ev, symObjAddr: 0x207C, symBinAddr: 0x100003D3C, symSize: 0x50 }
  - { offsetInCU: 0x9740, offset: 0x256A6, size: 0x8, addend: 0x0, symName: __ZNSt3__117__compressed_pairIPP15Seating_RequestNS_9allocatorIS2_EEEC1B8ue170006IDnNS_18__default_init_tagEEEOT_OT0_, symObjAddr: 0x20CC, symBinAddr: 0x100003D8C, symSize: 0x3C }
  - { offsetInCU: 0x9796, offset: 0x256FC, size: 0x8, addend: 0x0, symName: __ZNSt3__117__compressed_pairIPP15Seating_RequestNS_9allocatorIS2_EEEC2B8ue170006IDnNS_18__default_init_tagEEEOT_OT0_, symObjAddr: 0x2108, symBinAddr: 0x100003DC8, symSize: 0x40 }
  - { offsetInCU: 0x97EC, offset: 0x25752, size: 0x8, addend: 0x0, symName: __ZNSt3__122__compressed_pair_elemIPP15Seating_RequestLi0ELb0EEC2B8ue170006IDnvEEOT_, symObjAddr: 0x2148, symBinAddr: 0x100003E08, symSize: 0x1C }
  - { offsetInCU: 0x982D, offset: 0x25793, size: 0x8, addend: 0x0, symName: __ZNSt3__122__compressed_pair_elemINS_9allocatorIP15Seating_RequestEELi1ELb1EEC2B8ue170006ENS_18__default_init_tagE, symObjAddr: 0x2164, symBinAddr: 0x100003E24, symSize: 0x2C }
  - { offsetInCU: 0x985F, offset: 0x257C5, size: 0x8, addend: 0x0, symName: __ZNSt3__19allocatorIP15Seating_RequestEC2B8ue170006Ev, symObjAddr: 0x2190, symBinAddr: 0x100003E50, symSize: 0x2C }
  - { offsetInCU: 0x9887, offset: 0x257ED, size: 0x8, addend: 0x0, symName: __ZNSt3__116__non_trivial_ifILb1ENS_9allocatorIP15Seating_RequestEEEC2B8ue170006Ev, symObjAddr: 0x21BC, symBinAddr: 0x100003E7C, symSize: 0x14 }
  - { offsetInCU: 0x98AF, offset: 0x25815, size: 0x8, addend: 0x0, symName: __ZNSt3__117__compressed_pairImNS_9allocatorI15Seating_RequestEEEC2B8ue170006IiNS_18__default_init_tagEEEOT_OT0_, symObjAddr: 0x21D0, symBinAddr: 0x100003E90, symSize: 0x40 }
  - { offsetInCU: 0x9905, offset: 0x2586B, size: 0x8, addend: 0x0, symName: __ZNSt3__122__compressed_pair_elemImLi0ELb0EEC2B8ue170006IivEEOT_, symObjAddr: 0x2210, symBinAddr: 0x100003ED0, symSize: 0x24 }
  - { offsetInCU: 0x9946, offset: 0x258AC, size: 0x8, addend: 0x0, symName: __ZNSt3__122__compressed_pair_elemINS_9allocatorI15Seating_RequestEELi1ELb1EEC2B8ue170006ENS_18__default_init_tagE, symObjAddr: 0x2234, symBinAddr: 0x100003EF4, symSize: 0x2C }
  - { offsetInCU: 0x9978, offset: 0x258DE, size: 0x8, addend: 0x0, symName: __ZNSt3__19allocatorI15Seating_RequestEC2B8ue170006Ev, symObjAddr: 0x2260, symBinAddr: 0x100003F20, symSize: 0x2C }
  - { offsetInCU: 0x99A0, offset: 0x25906, size: 0x8, addend: 0x0, symName: __ZNSt3__116__non_trivial_ifILb1ENS_9allocatorI15Seating_RequestEEEC2B8ue170006Ev, symObjAddr: 0x228C, symBinAddr: 0x100003F4C, symSize: 0x14 }
  - { offsetInCU: 0x99C8, offset: 0x2592E, size: 0x8, addend: 0x0, symName: __ZNKSt3__112basic_stringIcNS_11char_traitsIcEENS_9allocatorIcEEE4sizeB8ue170006Ev, symObjAddr: 0x22D4, symBinAddr: 0x100003F60, symSize: 0x54 }
  - { offsetInCU: 0x99EC, offset: 0x25952, size: 0x8, addend: 0x0, symName: __ZNKSt3__112basic_stringIcNS_11char_traitsIcEENS_9allocatorIcEEE15__get_long_sizeB8ue170006Ev, symObjAddr: 0x2384, symBinAddr: 0x100003FB4, symSize: 0x28 }
  - { offsetInCU: 0x9A10, offset: 0x25976, size: 0x8, addend: 0x0, symName: __ZNKSt3__112basic_stringIcNS_11char_traitsIcEENS_9allocatorIcEEE16__get_short_sizeB8ue170006Ev, symObjAddr: 0x23AC, symBinAddr: 0x100003FDC, symSize: 0x34 }
  - { offsetInCU: 0x9A34, offset: 0x2599A, size: 0x8, addend: 0x0, symName: __ZNSt3__15dequeI15Seating_RequestNS_9allocatorIS1_EEE9push_backERKS1_, symObjAddr: 0x2418, symBinAddr: 0x100004010, symSize: 0xAC }
  - { offsetInCU: 0x9A78, offset: 0x259DE, size: 0x8, addend: 0x0, symName: __ZNKSt3__15dequeI15Seating_RequestNS_9allocatorIS1_EEE12__back_spareB8ue170006Ev, symObjAddr: 0x24C4, symBinAddr: 0x1000040BC, symSize: 0x54 }
  - { offsetInCU: 0x9A9C, offset: 0x25A02, size: 0x8, addend: 0x0, symName: __ZNSt3__15dequeI15Seating_RequestNS_9allocatorIS1_EEE19__add_back_capacityEv, symObjAddr: 0x2518, symBinAddr: 0x100004110, symSize: 0x34C }
  - { offsetInCU: 0x9B52, offset: 0x25AB8, size: 0x8, addend: 0x0, symName: __ZNKSt3__15dequeI15Seating_RequestNS_9allocatorIS1_EEE24__annotate_increase_backB8ue170006Em, symObjAddr: 0x2864, symBinAddr: 0x10000445C, symSize: 0x7C }
  - { offsetInCU: 0x9B85, offset: 0x25AEB, size: 0x8, addend: 0x0, symName: __ZNSt3__116allocator_traitsINS_9allocatorI15Seating_RequestEEE9constructB8ue170006IS2_JRKS2_EvEEvRS3_PT_DpOT0_, symObjAddr: 0x28E0, symBinAddr: 0x1000044D8, symSize: 0x34 }
  - { offsetInCU: 0x9BDE, offset: 0x25B44, size: 0x8, addend: 0x0, symName: __ZNKSt3__15dequeI15Seating_RequestNS_9allocatorIS1_EEE10__capacityB8ue170006Ev, symObjAddr: 0x2914, symBinAddr: 0x10000450C, symSize: 0x64 }
  - { offsetInCU: 0x9C02, offset: 0x25B68, size: 0x8, addend: 0x0, symName: __ZNKSt3__15dequeI15Seating_RequestNS_9allocatorIS1_EEE13__front_spareB8ue170006Ev, symObjAddr: 0x2978, symBinAddr: 0x100004570, symSize: 0x18 }
  - { offsetInCU: 0x9C26, offset: 0x25B8C, size: 0x8, addend: 0x0, symName: __ZNSt3__114__split_bufferIP15Seating_RequestNS_9allocatorIS2_EEE9push_backB8ue170006ERKS2_, symObjAddr: 0x2990, symBinAddr: 0x100004588, symSize: 0x260 }
  - { offsetInCU: 0x9C9D, offset: 0x25C03, size: 0x8, addend: 0x0, symName: __ZNKSt3__114__split_bufferIP15Seating_RequestNS_9allocatorIS2_EEE12__back_spareB8ue170006Ev, symObjAddr: 0x2BF0, symBinAddr: 0x1000047E8, symSize: 0x40 }
  - { offsetInCU: 0x9CC1, offset: 0x25C27, size: 0x8, addend: 0x0, symName: __ZNSt3__114__split_bufferIP15Seating_RequestNS_9allocatorIS2_EEE9push_backEOS2_, symObjAddr: 0x2C30, symBinAddr: 0x100004828, symSize: 0x260 }
  - { offsetInCU: 0x9D38, offset: 0x25C9E, size: 0x8, addend: 0x0, symName: __ZNSt3__116allocator_traitsINS_9allocatorI15Seating_RequestEEE8allocateB8ue170006ERS3_m, symObjAddr: 0x2E90, symBinAddr: 0x100004A88, symSize: 0x2C }
  - { offsetInCU: 0x9D6A, offset: 0x25CD0, size: 0x8, addend: 0x0, symName: __ZNSt3__114__split_bufferIP15Seating_RequestNS_9allocatorIS2_EEE10push_frontEOS2_, symObjAddr: 0x2EBC, symBinAddr: 0x100004AB4, symSize: 0x25C }
  - { offsetInCU: 0x9DE1, offset: 0x25D47, size: 0x8, addend: 0x0, symName: __ZNSt3__114__split_bufferIP15Seating_RequestRNS_9allocatorIS2_EEEC1EmmS5_, symObjAddr: 0x3144, symBinAddr: 0x100004D3C, symSize: 0x44 }
  - { offsetInCU: 0x9E3B, offset: 0x25DA1, size: 0x8, addend: 0x0, symName: __ZNSt3__122__allocator_destructorINS_9allocatorI15Seating_RequestEEEC1B8ue170006ERS3_m, symObjAddr: 0x3188, symBinAddr: 0x100004D80, symSize: 0x3C }
  - { offsetInCU: 0x9EFC, offset: 0x25E62, size: 0x8, addend: 0x0, symName: __ZNSt3__110unique_ptrIP15Seating_RequestNS_22__allocator_destructorINS_9allocatorIS1_EEEEEC1B8ue170006ILb1EvEES2_NS_16__dependent_typeINS_27__unique_ptr_deleter_sfinaeIS6_EEXT_EE20__good_rval_ref_typeE, symObjAddr: 0x31C4, symBinAddr: 0x100004DBC, symSize: 0x3C }
  - { offsetInCU: 0x9F4C, offset: 0x25EB2, size: 0x8, addend: 0x0, symName: __ZNSt3__114__split_bufferIP15Seating_RequestRNS_9allocatorIS2_EEE9push_backEOS2_, symObjAddr: 0x3200, symBinAddr: 0x100004DF8, symSize: 0x260 }
  - { offsetInCU: 0x9FC3, offset: 0x25F29, size: 0x8, addend: 0x0, symName: __ZNKSt3__110unique_ptrIP15Seating_RequestNS_22__allocator_destructorINS_9allocatorIS1_EEEEE3getB8ue170006Ev, symObjAddr: 0x3460, symBinAddr: 0x100005058, symSize: 0x28 }
  - { offsetInCU: 0x9FE7, offset: 0x25F4D, size: 0x8, addend: 0x0, symName: __ZNSt3__110unique_ptrIP15Seating_RequestNS_22__allocator_destructorINS_9allocatorIS1_EEEEE7releaseB8ue170006Ev, symObjAddr: 0x3488, symBinAddr: 0x100005080, symSize: 0x44 }
  - { offsetInCU: 0xA01A, offset: 0x25F80, size: 0x8, addend: 0x0, symName: __ZNSt3__114__split_bufferIP15Seating_RequestRNS_9allocatorIS2_EEE10push_frontERKS2_, symObjAddr: 0x34CC, symBinAddr: 0x1000050C4, symSize: 0x25C }
  - { offsetInCU: 0xA091, offset: 0x25FF7, size: 0x8, addend: 0x0, symName: __ZNSt3__114__split_bufferIP15Seating_RequestNS_9allocatorIS2_EEE9__end_capB8ue170006Ev, symObjAddr: 0x3764, symBinAddr: 0x10000535C, symSize: 0x28 }
  - { offsetInCU: 0xA0B5, offset: 0x2601B, size: 0x8, addend: 0x0, symName: __ZNSt3__114__split_bufferIP15Seating_RequestRNS_9allocatorIS2_EEE9__end_capB8ue170006Ev, symObjAddr: 0x378C, symBinAddr: 0x100005384, symSize: 0x28 }
  - { offsetInCU: 0xA0D9, offset: 0x2603F, size: 0x8, addend: 0x0, symName: __ZNSt3__110unique_ptrIP15Seating_RequestNS_22__allocator_destructorINS_9allocatorIS1_EEEEED1B8ue170006Ev, symObjAddr: 0x37B4, symBinAddr: 0x1000053AC, symSize: 0x2C }
  - { offsetInCU: 0xA101, offset: 0x26067, size: 0x8, addend: 0x0, symName: __ZNSt3__114__split_bufferIP15Seating_RequestRNS_9allocatorIS2_EEED1Ev, symObjAddr: 0x37E0, symBinAddr: 0x1000053D8, symSize: 0x2C }
  - { offsetInCU: 0xA12C, offset: 0x26092, size: 0x8, addend: 0x0, symName: __ZNSt3__114__split_bufferIP15Seating_RequestRNS_9allocatorIS2_EEE18__construct_at_endINS_13move_iteratorIPS2_EEEENS_9enable_ifIXsr31__has_forward_iterator_categoryIT_EE5valueEvE4typeESC_SC_, symObjAddr: 0x384C, symBinAddr: 0x100005444, symSize: 0x60 }
  - { offsetInCU: 0xA177, offset: 0x260DD, size: 0x8, addend: 0x0, symName: __ZNSt3__113move_iteratorIPP15Seating_RequestEC1B8ue170006ES3_, symObjAddr: 0x38AC, symBinAddr: 0x1000054A4, symSize: 0x34 }
  - { offsetInCU: 0xA1AD, offset: 0x26113, size: 0x8, addend: 0x0, symName: __ZNSt3__116allocator_traitsINS_9allocatorIP15Seating_RequestEEE9constructB8ue170006IS3_JRKS3_EvEEvRS4_PT_DpOT0_, symObjAddr: 0x38E0, symBinAddr: 0x1000054D8, symSize: 0x34 }
  - { offsetInCU: 0xA229, offset: 0x2618F, size: 0x8, addend: 0x0, symName: __ZNKSt3__114__move_trivialclB8ue170006IP15Seating_RequestS3_Li0EEENS_4pairIPT_PT0_EES6_S6_S8_, symObjAddr: 0x3AB0, symBinAddr: 0x1000056A8, symSize: 0x48 }
  - { offsetInCU: 0xA294, offset: 0x261FA, size: 0x8, addend: 0x0, symName: __ZNSt3__14pairIPP15Seating_RequestS3_EC1B8ue170006IRS3_S3_LPv0EEEOT_OT0_, symObjAddr: 0x3CD8, symBinAddr: 0x1000058D0, symSize: 0x3C }
  - { offsetInCU: 0xA2F1, offset: 0x26257, size: 0x8, addend: 0x0, symName: __ZNSt3__14pairIPP15Seating_RequestS3_EC2B8ue170006IRS3_S3_LPv0EEEOT_OT0_, symObjAddr: 0x3D14, symBinAddr: 0x10000590C, symSize: 0x34 }
  - { offsetInCU: 0xA34E, offset: 0x262B4, size: 0x8, addend: 0x0, symName: __ZNSt3__118__unwrap_iter_implIPP15Seating_RequestLb1EE8__unwrapB8ue170006ES3_, symObjAddr: 0x3D48, symBinAddr: 0x100005940, symSize: 0x24 }
  - { offsetInCU: 0xA370, offset: 0x262D6, size: 0x8, addend: 0x0, symName: __ZNSt3__14pairIPP15Seating_RequestS3_EC1B8ue170006IS3_S3_LPv0EEEOT_OT0_, symObjAddr: 0x3D6C, symBinAddr: 0x100005964, symSize: 0x3C }
  - { offsetInCU: 0xA3CD, offset: 0x26333, size: 0x8, addend: 0x0, symName: __ZNSt3__14pairIPP15Seating_RequestS3_EC2B8ue170006IS3_S3_LPv0EEEOT_OT0_, symObjAddr: 0x3DA8, symBinAddr: 0x1000059A0, symSize: 0x34 }
  - { offsetInCU: 0xA42A, offset: 0x26390, size: 0x8, addend: 0x0, symName: __ZNSt3__118__unwrap_iter_implIPP15Seating_RequestLb1EE8__rewrapB8ue170006ES3_S3_, symObjAddr: 0x3DDC, symBinAddr: 0x1000059D4, symSize: 0x50 }
  - { offsetInCU: 0xA45A, offset: 0x263C0, size: 0x8, addend: 0x0, symName: __ZNSt3__114__split_bufferIP15Seating_RequestRNS_9allocatorIS2_EEE28__construct_at_end_with_sizeINS_13move_iteratorIPS2_EEEEvT_m, symObjAddr: 0x3E2C, symBinAddr: 0x100005A24, symSize: 0xDC }
  - { offsetInCU: 0xA4BE, offset: 0x26424, size: 0x8, addend: 0x0, symName: __ZNSt3__114__split_bufferIP15Seating_RequestRNS_9allocatorIS2_EEE21_ConstructTransactionC1B8ue170006EPPS2_m, symObjAddr: 0x3F44, symBinAddr: 0x100005B3C, symSize: 0x3C }
  - { offsetInCU: 0xA502, offset: 0x26468, size: 0x8, addend: 0x0, symName: __ZNSt3__116allocator_traitsINS_9allocatorIP15Seating_RequestEEE9constructB8ue170006IS3_JS3_EvEEvRS4_PT_DpOT0_, symObjAddr: 0x3F80, symBinAddr: 0x100005B78, symSize: 0x34 }
  - { offsetInCU: 0xA55B, offset: 0x264C1, size: 0x8, addend: 0x0, symName: __ZNSt3__114__split_bufferIP15Seating_RequestRNS_9allocatorIS2_EEE7__allocB8ue170006Ev, symObjAddr: 0x3FB4, symBinAddr: 0x100005BAC, symSize: 0x28 }
  - { offsetInCU: 0xA57F, offset: 0x264E5, size: 0x8, addend: 0x0, symName: __ZNKSt3__113move_iteratorIPP15Seating_RequestEdeB8ue170006Ev, symObjAddr: 0x3FDC, symBinAddr: 0x100005BD4, symSize: 0x18 }
  - { offsetInCU: 0xA5A3, offset: 0x26509, size: 0x8, addend: 0x0, symName: __ZNSt3__113move_iteratorIPP15Seating_RequestEppB8ue170006Ev, symObjAddr: 0x3FF4, symBinAddr: 0x100005BEC, symSize: 0x20 }
  - { offsetInCU: 0xA5C7, offset: 0x2652D, size: 0x8, addend: 0x0, symName: __ZNSt3__114__split_bufferIP15Seating_RequestRNS_9allocatorIS2_EEE21_ConstructTransactionD1B8ue170006Ev, symObjAddr: 0x4014, symBinAddr: 0x100005C0C, symSize: 0x2C }
  - { offsetInCU: 0xA5EF, offset: 0x26555, size: 0x8, addend: 0x0, symName: __ZNSt3__114__split_bufferIP15Seating_RequestRNS_9allocatorIS2_EEE21_ConstructTransactionC2B8ue170006EPPS2_m, symObjAddr: 0x4040, symBinAddr: 0x100005C38, symSize: 0x44 }
  - { offsetInCU: 0xA633, offset: 0x26599, size: 0x8, addend: 0x0, symName: __ZNSt3__19allocatorIP15Seating_RequestE9constructB8ue170006IS2_JS2_EEEvPT_DpOT0_, symObjAddr: 0x4084, symBinAddr: 0x100005C7C, symSize: 0x28 }
  - { offsetInCU: 0xA689, offset: 0x265EF, size: 0x8, addend: 0x0, symName: __ZNSt3__117__compressed_pairIPP15Seating_RequestRNS_9allocatorIS2_EEE6secondB8ue170006Ev, symObjAddr: 0x40AC, symBinAddr: 0x100005CA4, symSize: 0x28 }
  - { offsetInCU: 0xA6AD, offset: 0x26613, size: 0x8, addend: 0x0, symName: __ZNSt3__122__compressed_pair_elemIRNS_9allocatorIP15Seating_RequestEELi1ELb0EE5__getB8ue170006Ev, symObjAddr: 0x40D4, symBinAddr: 0x100005CCC, symSize: 0x18 }
  - { offsetInCU: 0xA6D1, offset: 0x26637, size: 0x8, addend: 0x0, symName: __ZNSt3__114__split_bufferIP15Seating_RequestRNS_9allocatorIS2_EEE21_ConstructTransactionD2B8ue170006Ev, symObjAddr: 0x40EC, symBinAddr: 0x100005CE4, symSize: 0x20 }
  - { offsetInCU: 0xA6F9, offset: 0x2665F, size: 0x8, addend: 0x0, symName: __ZNKSt3__113move_iteratorIPP15Seating_RequestE4baseB8ue170006Ev, symObjAddr: 0x4184, symBinAddr: 0x100005D7C, symSize: 0x18 }
  - { offsetInCU: 0xA71D, offset: 0x26683, size: 0x8, addend: 0x0, symName: __ZNSt3__113move_iteratorIPP15Seating_RequestEC2B8ue170006ES3_, symObjAddr: 0x419C, symBinAddr: 0x100005D94, symSize: 0x20 }
  - { offsetInCU: 0xA753, offset: 0x266B9, size: 0x8, addend: 0x0, symName: __ZNSt3__19allocatorIP15Seating_RequestE9constructB8ue170006IS2_JRKS2_EEEvPT_DpOT0_, symObjAddr: 0x41BC, symBinAddr: 0x100005DB4, symSize: 0x28 }
  - { offsetInCU: 0xA7A9, offset: 0x2670F, size: 0x8, addend: 0x0, symName: __ZNSt3__19allocatorI15Seating_RequestE8allocateB8ue170006Em, symObjAddr: 0x41E4, symBinAddr: 0x100005DDC, symSize: 0x5C }
  - { offsetInCU: 0xA7E5, offset: 0x2674B, size: 0x8, addend: 0x0, symName: __ZNSt3__116allocator_traitsINS_9allocatorI15Seating_RequestEEE8max_sizeB8ue170006IS3_vEEmRKS3_, symObjAddr: 0x4240, symBinAddr: 0x100005E38, symSize: 0x24 }
  - { offsetInCU: 0xA813, offset: 0x26779, size: 0x8, addend: 0x0, symName: __ZNKSt3__19allocatorI15Seating_RequestE8max_sizeB8ue170006Ev, symObjAddr: 0x42C0, symBinAddr: 0x100005EB8, symSize: 0x18 }
  - { offsetInCU: 0xA841, offset: 0x267A7, size: 0x8, addend: 0x0, symName: __ZNKSt3__123__move_backward_trivialclB8ue170006IP15Seating_RequestS3_Li0EEENS_4pairIPT_PT0_EES6_S6_S8_, symObjAddr: 0x4478, symBinAddr: 0x100006070, symSize: 0x48 }
  - { offsetInCU: 0xA8A7, offset: 0x2680D, size: 0x8, addend: 0x0, symName: __ZNSt3__14pairIPP15Seating_RequestS3_EC1B8ue170006IRS3_S6_LPv0EEEOT_OT0_, symObjAddr: 0x4588, symBinAddr: 0x100006180, symSize: 0x3C }
  - { offsetInCU: 0xA904, offset: 0x2686A, size: 0x8, addend: 0x0, symName: __ZNSt3__14pairIPP15Seating_RequestS3_EC2B8ue170006IRS3_S6_LPv0EEEOT_OT0_, symObjAddr: 0x45C4, symBinAddr: 0x1000061BC, symSize: 0x34 }
  - { offsetInCU: 0xA96B, offset: 0x268D1, size: 0x8, addend: 0x0, symName: __ZNKSt3__16__lessIvvEclB8ue170006ImmEEbRKT_RKT0_, symObjAddr: 0x464C, symBinAddr: 0x100006244, symSize: 0x34 }
  - { offsetInCU: 0xA9BD, offset: 0x26923, size: 0x8, addend: 0x0, symName: __ZNSt3__114__split_bufferIP15Seating_RequestRNS_9allocatorIS2_EEEC2EmmS5_, symObjAddr: 0x4680, symBinAddr: 0x100006278, symSize: 0xD4 }
  - { offsetInCU: 0xAA30, offset: 0x26996, size: 0x8, addend: 0x0, symName: __ZNSt3__117__compressed_pairIPP15Seating_RequestRNS_9allocatorIS2_EEEC1B8ue170006IDnS6_EEOT_OT0_, symObjAddr: 0x4754, symBinAddr: 0x10000634C, symSize: 0x3C }
  - { offsetInCU: 0xAA86, offset: 0x269EC, size: 0x8, addend: 0x0, symName: __ZNSt3__117__compressed_pairIPP15Seating_RequestRNS_9allocatorIS2_EEEC2B8ue170006IDnS6_EEOT_OT0_, symObjAddr: 0x47D0, symBinAddr: 0x1000063C8, symSize: 0x48 }
  - { offsetInCU: 0xAADC, offset: 0x26A42, size: 0x8, addend: 0x0, symName: __ZNSt3__122__compressed_pair_elemIRNS_9allocatorIP15Seating_RequestEELi1ELb0EEC2B8ue170006IS5_vEEOT_, symObjAddr: 0x4818, symBinAddr: 0x100006410, symSize: 0x20 }
  - { offsetInCU: 0xAB1D, offset: 0x26A83, size: 0x8, addend: 0x0, symName: __ZNSt3__19allocatorIP15Seating_RequestE8allocateB8ue170006Em, symObjAddr: 0x4838, symBinAddr: 0x100006430, symSize: 0x58 }
  - { offsetInCU: 0xAB59, offset: 0x26ABF, size: 0x8, addend: 0x0, symName: __ZNSt3__116allocator_traitsINS_9allocatorIP15Seating_RequestEEE8max_sizeB8ue170006IS4_vEEmRKS4_, symObjAddr: 0x4890, symBinAddr: 0x100006488, symSize: 0x24 }
  - { offsetInCU: 0xAB87, offset: 0x26AED, size: 0x8, addend: 0x0, symName: __ZNKSt3__19allocatorIP15Seating_RequestE8max_sizeB8ue170006Ev, symObjAddr: 0x48B4, symBinAddr: 0x1000064AC, symSize: 0x14 }
  - { offsetInCU: 0xABAB, offset: 0x26B11, size: 0x8, addend: 0x0, symName: __ZNSt3__122__allocator_destructorINS_9allocatorI15Seating_RequestEEEC2B8ue170006ERS3_m, symObjAddr: 0x48C8, symBinAddr: 0x1000064C0, symSize: 0x2C }
  - { offsetInCU: 0xABEF, offset: 0x26B55, size: 0x8, addend: 0x0, symName: __ZNSt3__110unique_ptrIP15Seating_RequestNS_22__allocator_destructorINS_9allocatorIS1_EEEEEC2B8ue170006ILb1EvEES2_NS_16__dependent_typeINS_27__unique_ptr_deleter_sfinaeIS6_EEXT_EE20__good_rval_ref_typeE, symObjAddr: 0x48F4, symBinAddr: 0x1000064EC, symSize: 0x48 }
  - { offsetInCU: 0xAC3F, offset: 0x26BA5, size: 0x8, addend: 0x0, symName: __ZNSt3__117__compressed_pairIP15Seating_RequestNS_22__allocator_destructorINS_9allocatorIS1_EEEEEC1B8ue170006IRS2_S6_EEOT_OT0_, symObjAddr: 0x493C, symBinAddr: 0x100006534, symSize: 0x3C }
  - { offsetInCU: 0xAC95, offset: 0x26BFB, size: 0x8, addend: 0x0, symName: __ZNSt3__117__compressed_pairIP15Seating_RequestNS_22__allocator_destructorINS_9allocatorIS1_EEEEEC2B8ue170006IRS2_S6_EEOT_OT0_, symObjAddr: 0x4978, symBinAddr: 0x100006570, symSize: 0x48 }
  - { offsetInCU: 0xACEB, offset: 0x26C51, size: 0x8, addend: 0x0, symName: __ZNSt3__122__compressed_pair_elemIP15Seating_RequestLi0ELb0EEC2B8ue170006IRS2_vEEOT_, symObjAddr: 0x49C0, symBinAddr: 0x1000065B8, symSize: 0x24 }
  - { offsetInCU: 0xAD2C, offset: 0x26C92, size: 0x8, addend: 0x0, symName: __ZNSt3__122__compressed_pair_elemINS_22__allocator_destructorINS_9allocatorI15Seating_RequestEEEELi1ELb0EEC2B8ue170006IS5_vEEOT_, symObjAddr: 0x49E4, symBinAddr: 0x1000065DC, symSize: 0x24 }
  - { offsetInCU: 0xAD6D, offset: 0x26CD3, size: 0x8, addend: 0x0, symName: __ZNKSt3__117__compressed_pairIP15Seating_RequestNS_22__allocator_destructorINS_9allocatorIS1_EEEEE5firstB8ue170006Ev, symObjAddr: 0x4A08, symBinAddr: 0x100006600, symSize: 0x24 }
  - { offsetInCU: 0xAD91, offset: 0x26CF7, size: 0x8, addend: 0x0, symName: __ZNKSt3__122__compressed_pair_elemIP15Seating_RequestLi0ELb0EE5__getB8ue170006Ev, symObjAddr: 0x4A2C, symBinAddr: 0x100006624, symSize: 0x14 }
  - { offsetInCU: 0xADB5, offset: 0x26D1B, size: 0x8, addend: 0x0, symName: __ZNSt3__117__compressed_pairIP15Seating_RequestNS_22__allocator_destructorINS_9allocatorIS1_EEEEE5firstB8ue170006Ev, symObjAddr: 0x4A40, symBinAddr: 0x100006638, symSize: 0x24 }
  - { offsetInCU: 0xADD9, offset: 0x26D3F, size: 0x8, addend: 0x0, symName: __ZNSt3__122__compressed_pair_elemIP15Seating_RequestLi0ELb0EE5__getB8ue170006Ev, symObjAddr: 0x4A64, symBinAddr: 0x10000665C, symSize: 0x14 }
  - { offsetInCU: 0xADFD, offset: 0x26D63, size: 0x8, addend: 0x0, symName: __ZNSt3__117__compressed_pairIPP15Seating_RequestNS_9allocatorIS2_EEE5firstB8ue170006Ev, symObjAddr: 0x4A78, symBinAddr: 0x100006670, symSize: 0x24 }
  - { offsetInCU: 0xAE21, offset: 0x26D87, size: 0x8, addend: 0x0, symName: __ZNSt3__122__compressed_pair_elemIPP15Seating_RequestLi0ELb0EE5__getB8ue170006Ev, symObjAddr: 0x4A9C, symBinAddr: 0x100006694, symSize: 0x14 }
  - { offsetInCU: 0xAE45, offset: 0x26DAB, size: 0x8, addend: 0x0, symName: __ZNSt3__117__compressed_pairIPP15Seating_RequestRNS_9allocatorIS2_EEE5firstB8ue170006Ev, symObjAddr: 0x4AB0, symBinAddr: 0x1000066A8, symSize: 0x24 }
  - { offsetInCU: 0xAE69, offset: 0x26DCF, size: 0x8, addend: 0x0, symName: __ZNSt3__110unique_ptrIP15Seating_RequestNS_22__allocator_destructorINS_9allocatorIS1_EEEEED2B8ue170006Ev, symObjAddr: 0x4AD4, symBinAddr: 0x1000066CC, symSize: 0x30 }
  - { offsetInCU: 0xAE91, offset: 0x26DF7, size: 0x8, addend: 0x0, symName: __ZNSt3__110unique_ptrIP15Seating_RequestNS_22__allocator_destructorINS_9allocatorIS1_EEEEE5resetB8ue170006ES2_, symObjAddr: 0x4B04, symBinAddr: 0x1000066FC, symSize: 0x78 }
  - { offsetInCU: 0xAED3, offset: 0x26E39, size: 0x8, addend: 0x0, symName: __ZNSt3__117__compressed_pairIP15Seating_RequestNS_22__allocator_destructorINS_9allocatorIS1_EEEEE6secondB8ue170006Ev, symObjAddr: 0x4B7C, symBinAddr: 0x100006774, symSize: 0x28 }
  - { offsetInCU: 0xAEF7, offset: 0x26E5D, size: 0x8, addend: 0x0, symName: __ZNSt3__122__allocator_destructorINS_9allocatorI15Seating_RequestEEEclB8ue170006EPS2_, symObjAddr: 0x4BA4, symBinAddr: 0x10000679C, symSize: 0x34 }
  - { offsetInCU: 0xAF29, offset: 0x26E8F, size: 0x8, addend: 0x0, symName: __ZNSt3__122__compressed_pair_elemINS_22__allocator_destructorINS_9allocatorI15Seating_RequestEEEELi1ELb0EE5__getB8ue170006Ev, symObjAddr: 0x4BD8, symBinAddr: 0x1000067D0, symSize: 0x14 }
  - { offsetInCU: 0xAF4D, offset: 0x26EB3, size: 0x8, addend: 0x0, symName: __ZNSt3__114__split_bufferIP15Seating_RequestRNS_9allocatorIS2_EEED2Ev, symObjAddr: 0x4BEC, symBinAddr: 0x1000067E4, symSize: 0x8C }
  - { offsetInCU: 0xAF78, offset: 0x26EDE, size: 0x8, addend: 0x0, symName: __ZNSt3__114__split_bufferIP15Seating_RequestRNS_9allocatorIS2_EEE5clearB8ue170006Ev, symObjAddr: 0x4C78, symBinAddr: 0x100006870, symSize: 0x28 }
  - { offsetInCU: 0xAF9C, offset: 0x26F02, size: 0x8, addend: 0x0, symName: __ZNKSt3__114__split_bufferIP15Seating_RequestRNS_9allocatorIS2_EEE8capacityB8ue170006Ev, symObjAddr: 0x4CA0, symBinAddr: 0x100006898, symSize: 0x40 }
  - { offsetInCU: 0xAFC0, offset: 0x26F26, size: 0x8, addend: 0x0, symName: __ZNSt3__114__split_bufferIP15Seating_RequestRNS_9allocatorIS2_EEE17__destruct_at_endB8ue170006EPS2_, symObjAddr: 0x4CE0, symBinAddr: 0x1000068D8, symSize: 0x2C }
  - { offsetInCU: 0xAFF2, offset: 0x26F58, size: 0x8, addend: 0x0, symName: __ZNSt3__114__split_bufferIP15Seating_RequestRNS_9allocatorIS2_EEE17__destruct_at_endB8ue170006EPS2_NS_17integral_constantIbLb0EEE, symObjAddr: 0x4D0C, symBinAddr: 0x100006904, symSize: 0x80 }
  - { offsetInCU: 0xB030, offset: 0x26F96, size: 0x8, addend: 0x0, symName: __ZNKSt3__114__split_bufferIP15Seating_RequestRNS_9allocatorIS2_EEE9__end_capB8ue170006Ev, symObjAddr: 0x4D8C, symBinAddr: 0x100006984, symSize: 0x28 }
  - { offsetInCU: 0xB054, offset: 0x26FBA, size: 0x8, addend: 0x0, symName: __ZNKSt3__117__compressed_pairIPP15Seating_RequestRNS_9allocatorIS2_EEE5firstB8ue170006Ev, symObjAddr: 0x4DB4, symBinAddr: 0x1000069AC, symSize: 0x24 }
  - { offsetInCU: 0xB078, offset: 0x26FDE, size: 0x8, addend: 0x0, symName: __ZNSt3__19allocatorI15Seating_RequestE9constructB8ue170006IS1_JRKS1_EEEvPT_DpOT0_, symObjAddr: 0x4DD8, symBinAddr: 0x1000069D0, symSize: 0x30 }
  - { offsetInCU: 0xB0CE, offset: 0x27034, size: 0x8, addend: 0x0, symName: __ZNSt3__15dequeI15Seating_RequestNS_9allocatorIS1_EEE5frontEv, symObjAddr: 0x4EFC, symBinAddr: 0x100006A00, symSize: 0x58 }
  - { offsetInCU: 0xB0F4, offset: 0x2705A, size: 0x8, addend: 0x0, symName: __ZNSt3__15dequeI15Seating_RequestNS_9allocatorIS1_EEE9pop_frontEv, symObjAddr: 0x4F54, symBinAddr: 0x100006A58, symSize: 0xDC }
  - { offsetInCU: 0xB147, offset: 0x270AD, size: 0x8, addend: 0x0, symName: __ZNKSt3__15dequeI15Seating_RequestNS_9allocatorIS1_EEE23__annotate_shrink_frontB8ue170006Emm, symObjAddr: 0x5030, symBinAddr: 0x100006B34, symSize: 0x70 }
  - { offsetInCU: 0xB189, offset: 0x270EF, size: 0x8, addend: 0x0, symName: __ZNSt3__15dequeI15Seating_RequestNS_9allocatorIS1_EEE26__maybe_remove_front_spareB8ue170006Eb, symObjAddr: 0x50A0, symBinAddr: 0x100006BA4, symSize: 0xEC }
  - { offsetInCU: 0xB1BC, offset: 0x27122, size: 0x8, addend: 0x0, symName: __ZNKSt3__15dequeI15Seating_RequestNS_9allocatorIS1_EEE20__front_spare_blocksB8ue170006Ev, symObjAddr: 0x518C, symBinAddr: 0x100006C90, symSize: 0x2C }
...
